target datalayout = "e-m:e-p270:32:32-p271:32:32-p272:64:64-i64:64-i128:128-f80:128-n8:16:32:64-S128"
target triple = "x86_64-pc-linux-gnu"

%class.OopHandle = type { ptr }
%class.MemRegion = type { ptr, i64 }
%class.ShenandoahRegionIterator = type { ptr, [64 x i8], i64, [64 x i8] }
%class.ShenandoahHeap = type <{ %class.CollectedHeap, %class.ShenandoahSpaceInfo, %class.ShenandoahLock, i64, i64, i64, [64 x i8], i64, i64, i64, [64 x i8], i32, [4 x i8], ptr, ptr, %class.MemRegion, i8, [7 x i8], i64, ptr, %class.ShenandoahRegionIterator, i8, %struct.ShenandoahSharedBitmap, %struct.ShenandoahSharedFlag, %struct.ShenandoahSharedFlag, %struct.ShenandoahSharedFlag, %struct.ShenandoahSharedFlag, %struct.ShenandoahSharedFlag, i8, i64, %struct.ShenandoahSharedEnumFlag, [7 x i8], ptr, ptr, ptr, ptr, ptr, ptr, ptr, ptr, ptr, ptr, %class.GCMemoryManager, %class.GCMemoryManager, ptr, i32, [4 x i8], ptr, %struct.ShenandoahSharedFlag, %class.ShenandoahUnload, [6 x i8], ptr, %class.MemRegion, %class.MemRegion, %class.MarkBitMap, %class.MarkBitMap, i64, i64, i64, i64, i64, i8, i8, [6 x i8], ptr, ptr, %class.ShenandoahEvacOOMHandler, %struct.ShenandoahSharedFlag, [7 x i8] }>
%class.CollectedHeap = type { ptr, ptr, i64, i64, %class.SoftRefPolicy, %class.MemRegion, i8, i64, i32, i32, i32, i32, ptr, ptr }
%class.SoftRefPolicy = type { i8, i8 }
%class.ShenandoahSpaceInfo = type { ptr }
%class.ShenandoahLock = type { [64 x i8], i32, [64 x i8], ptr, [64 x i8] }
%struct.ShenandoahSharedBitmap = type { [64 x i8], i8, [64 x i8] }
%struct.ShenandoahSharedEnumFlag = type { [64 x i8], i8, [64 x i8] }
%class.GCMemoryManager = type <{ %class.MemoryManager.base, [7 x i8], i64, %class.elapsedTimer, ptr, ptr, ptr, i32, i8, [10 x i8], i8 }>
%class.MemoryManager.base = type <{ ptr, [10 x ptr], i32, [4 x i8], ptr, %class.OopHandle, i8 }>
%class.elapsedTimer = type <{ i64, i64, i8, [7 x i8] }>
%class.ShenandoahUnload = type { i8 }
%class.MarkBitMap = type { ptr, %class.MemRegion, i32, %class.BitMapView }
%class.BitMapView = type { %class.BitMap }
%class.BitMap = type { ptr, i64 }
%class.ShenandoahEvacOOMHandler = type { i32, [64 x i8], ptr }
%struct.ShenandoahSharedFlag = type { [64 x i8], i8, [64 x i8] }
%class.ShenandoahWorkerThreads = type <{ %class.WorkerThreads, i8, [7 x i8] }>
%class.WorkerThreads = type { ptr, ptr, ptr, i32, i32, i32, %class.WorkerTaskDispatcher }
%class.WorkerTaskDispatcher = type { ptr, i32, i32, %class.Semaphore, %class.Semaphore }
%class.Semaphore = type { %class.PosixSemaphore }
%class.PosixSemaphore = type { %union.sem_t }
%union.sem_t = type { i64, [24 x i8] }
%class.MutexLocker = type { %class.MutexLockerImpl }
%class.MutexLockerImpl = type { ptr }
%class.ShenandoahInitWorkerGCLABClosure = type { %class.ThreadClosure }
%class.ThreadClosure = type { ptr }

@Threads_lock = external global ptr, align 8
@_ZTV32ShenandoahInitWorkerGCLABClosure = linkonce_odr hidden unnamed_addr constant { [3 x ptr] } { [3 x ptr] [ptr null, ptr null, ptr @_ZN32ShenandoahInitWorkerGCLABClosure9do_threadEP6Thread] }, comdat, align 8
@_ZTV13ThreadClosure = linkonce_odr hidden unnamed_addr constant { [3 x ptr] } { [3 x ptr] [ptr null, ptr null, ptr @__cxa_pure_virtual] }, comdat, align 8

; Function Attrs: mustprogress nounwind uwtable
define linkonce_odr hidden void @_ZN15MutexLockerImplD2Ev(ptr noundef nonnull align 8 dereferenceable(8) %0) unnamed_addr #1 comdat align 2 {
  %2 = alloca ptr, align 8
  store ptr %0, ptr %2, align 8
  %3 = load ptr, ptr %2, align 8
  %4 = getelementptr inbounds %class.MutexLockerImpl, ptr %3, i32 0, i32 0
  %5 = load ptr, ptr %4, align 8
  %6 = icmp ne ptr %5, null
  br i1 %6, label %7, label %10

7:                                                ; preds = %1
  %8 = getelementptr inbounds %class.MutexLockerImpl, ptr %3, i32 0, i32 0
  %9 = load ptr, ptr %8, align 8
  call void @_ZN5Mutex6unlockEv(ptr noundef nonnull align 8 dereferenceable(104) %9)
  br label %10

10:                                               ; preds = %7, %1
  ret void
}

; Function Attrs: mustprogress nounwind uwtable
define linkonce_odr hidden void @_ZN13ThreadClosureC2Ev(ptr noundef nonnull align 8 dereferenceable(8) %0) unnamed_addr #1 comdat align 2 {
  %2 = alloca ptr, align 8
  store ptr %0, ptr %2, align 8
  %3 = load ptr, ptr %2, align 8
  store ptr getelementptr inbounds inrange(-16, 8) ({ [3 x ptr] }, ptr @_ZTV13ThreadClosure, i32 0, i32 0, i32 2), ptr %3, align 8
  ret void
}

; Function Attrs: mustprogress nounwind uwtable
define linkonce_odr hidden void @_ZN15MutexLockerImplC2EP5MutexNS0_18SafepointCheckFlagE(ptr noundef nonnull align 8 dereferenceable(8) %0, ptr noundef %1, i32 noundef %2) unnamed_addr #1 comdat align 2 {
  %4 = alloca ptr, align 8
  %5 = alloca ptr, align 8
  %6 = alloca i32, align 4
  %7 = alloca i8, align 1
  store ptr %0, ptr %4, align 8
  store ptr %1, ptr %5, align 8
  store i32 %2, ptr %6, align 4
  %8 = load ptr, ptr %4, align 8
  %9 = getelementptr inbounds %class.MutexLockerImpl, ptr %8, i32 0, i32 0
  %10 = load ptr, ptr %5, align 8
  store ptr %10, ptr %9, align 8
  %11 = load i32, ptr %6, align 4
  %12 = icmp eq i32 %11, 1
  %13 = zext i1 %12 to i8
  store i8 %13, ptr %7, align 1
  %14 = getelementptr inbounds %class.MutexLockerImpl, ptr %8, i32 0, i32 0
  %15 = load ptr, ptr %14, align 8
  %16 = icmp ne ptr %15, null
  br i1 %16, label %17, label %27

17:                                               ; preds = %3
  %18 = load i8, ptr %7, align 1
  %19 = trunc i8 %18 to i1
  br i1 %19, label %20, label %23

20:                                               ; preds = %17
  %21 = getelementptr inbounds %class.MutexLockerImpl, ptr %8, i32 0, i32 0
  %22 = load ptr, ptr %21, align 8
  call void @_ZN5Mutex28lock_without_safepoint_checkEv(ptr noundef nonnull align 8 dereferenceable(104) %22)
  br label %26

23:                                               ; preds = %17
  %24 = getelementptr inbounds %class.MutexLockerImpl, ptr %8, i32 0, i32 0
  %25 = load ptr, ptr %24, align 8
  call void @_ZN5Mutex4lockEv(ptr noundef nonnull align 8 dereferenceable(104) %25)
  br label %26

26:                                               ; preds = %23, %20
  br label %27

27:                                               ; preds = %26, %3
  ret void
}

; Function Attrs: mustprogress nounwind uwtable
define linkonce_odr hidden void @_ZN11MutexLockerD2Ev(ptr noundef nonnull align 8 dereferenceable(8) %0) unnamed_addr #1 comdat align 2 {
  %2 = alloca ptr, align 8
  store ptr %0, ptr %2, align 8
  %3 = load ptr, ptr %2, align 8
  call void @_ZN15MutexLockerImplD2Ev(ptr noundef nonnull align 8 dereferenceable(8) %3) #12
  ret void
}

; Function Attrs: mustprogress nounwind uwtable
define linkonce_odr hidden void @_ZN23ShenandoahWorkerThreads20set_initialize_gclabEv(ptr noundef nonnull align 8 dereferenceable(121) %0) #1 comdat align 2 {
  %2 = alloca ptr, align 8
  store ptr %0, ptr %2, align 8
  %3 = load ptr, ptr %2, align 8
  %4 = getelementptr inbounds %class.ShenandoahWorkerThreads, ptr %3, i32 0, i32 1
  store i8 1, ptr %4, align 8
  ret void
}

; Function Attrs: mustprogress nounwind uwtable
define linkonce_odr hidden void @_ZN32ShenandoahInitWorkerGCLABClosureC2Ev(ptr noundef nonnull align 8 dereferenceable(8) %0) unnamed_addr #1 comdat align 2 {
  %2 = alloca ptr, align 8
  store ptr %0, ptr %2, align 8
  %3 = load ptr, ptr %2, align 8
  call void @_ZN13ThreadClosureC2Ev(ptr noundef nonnull align 8 dereferenceable(8) %3) #12
  store ptr getelementptr inbounds inrange(-16, 8) ({ [3 x ptr] }, ptr @_ZTV32ShenandoahInitWorkerGCLABClosure, i32 0, i32 0, i32 2), ptr %3, align 8
  ret void
}

; Function Attrs: mustprogress nounwind uwtable
define linkonce_odr hidden void @_ZN11MutexLockerC2EP5MutexNS0_18SafepointCheckFlagE(ptr noundef nonnull align 8 dereferenceable(8) %0, ptr noundef %1, i32 noundef %2) unnamed_addr #1 comdat align 2 {
  %4 = alloca ptr, align 8
  %5 = alloca ptr, align 8
  %6 = alloca i32, align 4
  store ptr %0, ptr %4, align 8
  store ptr %1, ptr %5, align 8
  store i32 %2, ptr %6, align 4
  %7 = load ptr, ptr %4, align 8
  %8 = load ptr, ptr %5, align 8
  %9 = load i32, ptr %6, align 4
  call void @_ZN15MutexLockerImplC2EP5MutexNS0_18SafepointCheckFlagE(ptr noundef nonnull align 8 dereferenceable(8) %7, ptr noundef %8, i32 noundef %9)
  ret void
}

; Function Attrs: mustprogress nounwind uwtable
define hidden void @_ZN14ShenandoahHeap15post_initializeEv(ptr noundef nonnull align 8 dereferenceable(2657) %0) unnamed_addr #1 align 2 {
  %2 = alloca ptr, align 8
  %3 = alloca %class.MutexLocker, align 8
  %4 = alloca %class.ShenandoahInitWorkerGCLABClosure, align 8
  store ptr %0, ptr %2, align 8
  %5 = load ptr, ptr %2, align 8
  call void @_ZN13CollectedHeap15post_initializeEv(ptr noundef nonnull align 8 dereferenceable(104) %5)
  %6 = load ptr, ptr @Threads_lock, align 8
  call void @_ZN11MutexLockerC2EP5MutexNS0_18SafepointCheckFlagE(ptr noundef nonnull align 8 dereferenceable(8) %3, ptr noundef %6, i32 noundef 0)
  call void @_ZN32ShenandoahInitWorkerGCLABClosureC2Ev(ptr noundef nonnull align 8 dereferenceable(8) %4) #12
  %7 = getelementptr inbounds %class.ShenandoahHeap, ptr %5, i32 0, i32 13
  %8 = load ptr, ptr %7, align 8
  call void @_ZNK13WorkerThreads10threads_doEP13ThreadClosure(ptr noundef nonnull align 8 dereferenceable(120) %8, ptr noundef %4)
  %9 = getelementptr inbounds %class.ShenandoahHeap, ptr %5, i32 0, i32 13
  %10 = load ptr, ptr %9, align 8
  call void @_ZN23ShenandoahWorkerThreads20set_initialize_gclabEv(ptr noundef nonnull align 8 dereferenceable(121) %10)
  %11 = getelementptr inbounds %class.ShenandoahHeap, ptr %5, i32 0, i32 14
  %12 = load ptr, ptr %11, align 8
  %13 = icmp ne ptr %12, null
  br i1 %13, label %14, label %19

14:                                               ; preds = %1
  %15 = getelementptr inbounds %class.ShenandoahHeap, ptr %5, i32 0, i32 14
  %16 = load ptr, ptr %15, align 8
  call void @_ZNK13WorkerThreads10threads_doEP13ThreadClosure(ptr noundef nonnull align 8 dereferenceable(120) %16, ptr noundef %4)
  %17 = getelementptr inbounds %class.ShenandoahHeap, ptr %5, i32 0, i32 14
  %18 = load ptr, ptr %17, align 8
  call void @_ZN23ShenandoahWorkerThreads20set_initialize_gclabEv(ptr noundef nonnull align 8 dereferenceable(121) %18)
  br label %19

19:                                               ; preds = %14, %1
  %20 = getelementptr inbounds %class.ShenandoahHeap, ptr %5, i32 0, i32 35
  %21 = load ptr, ptr %20, align 8
  %22 = load ptr, ptr %21, align 8
  %23 = getelementptr inbounds ptr, ptr %22, i64 18
  %24 = load ptr, ptr %23, align 8
  call void %24(ptr noundef nonnull align 8 dereferenceable(193) %21)
  call void @_ZN20ShenandoahJFRSupport29register_jfr_type_serializersEv()
  call void @_ZN11MutexLockerD2Ev(ptr noundef nonnull align 8 dereferenceable(8) %3) #12
  ret void
}