; Function Attrs: mustprogress nounwind uwtable
define hidden void @_ZN14ShenandoahHeap15post_initializeEv(ptr noundef nonnull align 8 dereferenceable(2657) %0) unnamed_addr #1 align 2 {
  %2 = alloca %class.ShenandoahInitWorkerGCLABClosure, align 8
  tail call void @_ZN13CollectedHeap15post_initializeEv(ptr noundef nonnull align 8 dereferenceable(104) %0) #26
  %3 = load ptr, ptr @Threads_lock, align 8
  %.not.i.i = icmp eq ptr %3, null
  br i1 %.not.i.i, label %_ZN11MutexLockerC2EP5MutexNS0_18SafepointCheckFlagE.exit, label %4

4:                                                ; preds = %1
  tail call void @_ZN5Mutex4lockEv(ptr noundef nonnull align 8 dereferenceable(104) %3) #26
  br label %_ZN11MutexLockerC2EP5MutexNS0_18SafepointCheckFlagE.exit

_ZN11MutexLockerC2EP5MutexNS0_18SafepointCheckFlagE.exit: ; preds = %1, %4
  store ptr getelementptr inbounds inrange(-16, 8) (i8, ptr @_ZTV32ShenandoahInitWorkerGCLABClosure, i64 16), ptr %2, align 8
  %5 = getelementptr inbounds i8, ptr %0, i64 504
  %6 = load ptr, ptr %5, align 8
  call void @_ZNK13WorkerThreads10threads_doEP13ThreadClosure(ptr noundef nonnull align 8 dereferenceable(120) %6, ptr noundef nonnull %2) #26
  %7 = load ptr, ptr %5, align 8
  %8 = getelementptr inbounds i8, ptr %7, i64 120
  store i8 1, ptr %8, align 8
  %9 = getelementptr inbounds i8, ptr %0, i64 512
  %10 = load ptr, ptr %9, align 8
  %.not = icmp eq ptr %10, null
  br i1 %.not, label %14, label %11

11:                                               ; preds = %_ZN11MutexLockerC2EP5MutexNS0_18SafepointCheckFlagE.exit
  call void @_ZNK13WorkerThreads10threads_doEP13ThreadClosure(ptr noundef nonnull align 8 dereferenceable(120) %10, ptr noundef nonnull %2) #26
  %12 = load ptr, ptr %9, align 8
  %13 = getelementptr inbounds i8, ptr %12, i64 120
  store i8 1, ptr %13, align 8
  br label %14

14:                                               ; preds = %11, %_ZN11MutexLockerC2EP5MutexNS0_18SafepointCheckFlagE.exit
  %15 = getelementptr inbounds i8, ptr %0, i64 1648
  %16 = load ptr, ptr %15, align 8
  %17 = load ptr, ptr %16, align 8
  %18 = getelementptr inbounds i8, ptr %17, i64 144
  %19 = load ptr, ptr %18, align 8
  call void %19(ptr noundef nonnull align 8 dereferenceable(193) %16) #26
  call void @_ZN20ShenandoahJFRSupport29register_jfr_type_serializersEv() #26
  br i1 %.not.i.i, label %_ZN11MutexLockerD2Ev.exit, label %20

20:                                               ; preds = %14
  call void @_ZN5Mutex6unlockEv(ptr noundef nonnull align 8 dereferenceable(104) %3) #26
  br label %_ZN11MutexLockerD2Ev.exit

_ZN11MutexLockerD2Ev.exit:                        ; preds = %14, %20
  ret void
}